target datalayout = "e-m:e-p270:32:32-p271:32:32-p272:64:64-i64:64-i128:128-f80:128-n8:16:32:64-S128"
target triple = "x86_64-pc-linux-gnu"

%struct.ctlog_st = type { ptr, ptr, ptr, [32 x i8], ptr }

@.str = private unnamed_addr constant [30 x i8] c"../openssl/crypto/ct/ct_log.c\00", align 1

; Function Attrs: nounwind uwtable
define void @CTLOG_free(ptr noundef %0) #0 {
  %2 = alloca ptr, align 8
  store ptr %0, ptr %2, align 8, !tbaa !19
  %3 = load ptr, ptr %2, align 8, !tbaa !19
  %4 = icmp ne ptr %3, null
  br i1 %4, label %5, label %16

5:                                                ; preds = %1
  %6 = load ptr, ptr %2, align 8, !tbaa !19
  %7 = getelementptr inbounds nuw %struct.ctlog_st, ptr %6, i32 0, i32 2
  %8 = load ptr, ptr %7, align 8, !tbaa !21
  call void @CRYPTO_free(ptr noundef %8, ptr noundef @.str, i32 noundef 295)
  %9 = load ptr, ptr %2, align 8, !tbaa !19
  %10 = getelementptr inbounds nuw %struct.ctlog_st, ptr %9, i32 0, i32 4
  %11 = load ptr, ptr %10, align 8, !tbaa !24
  call void @EVP_PKEY_free(ptr noundef %11)
  %12 = load ptr, ptr %2, align 8, !tbaa !19
  %13 = getelementptr inbounds nuw %struct.ctlog_st, ptr %12, i32 0, i32 1
  %14 = load ptr, ptr %13, align 8, !tbaa !25
  call void @CRYPTO_free(ptr noundef %14, ptr noundef @.str, i32 noundef 297)
  %15 = load ptr, ptr %2, align 8, !tbaa !19
  call void @CRYPTO_free(ptr noundef %15, ptr noundef @.str, i32 noundef 298)
  br label %16

16:                                               ; preds = %5, %1
  ret void
}